target datalayout = "e-m:e-p270:32:32-p271:32:32-p272:64:64-i64:64-i128:128-f80:128-n8:16:32:64-S128"
target triple = "x86_64-unknown-linux-gnu"

%"class.subpaving::context_mpq_wrapper" = type { %"class.subpaving::context_wrapper", %class._scoped_numeral, %class._scoped_numeral_vector }
%"class.subpaving::context_wrapper" = type { %"class.subpaving::context", %"class.subpaving::context_t" }
%"class.subpaving::context" = type { ptr }
%"class.subpaving::context_t" = type { ptr, %"struct.subpaving::config_mpq", i8, i8, ptr, %class.parray_manager, %class.interval_manager, %class._scoped_numeral_vector, %class.svector.1, %class.ptr_vector.3, %class.vector.5, %class.ptr_vector.6, %class.ptr_vector.8, %class.ptr_vector.8, %class.id_gen, i64, ptr, ptr, ptr, i32, %class.ptr_vector.12, i32, %"struct.subpaving::display_var_proc", ptr, %class.scoped_ptr, %class.scoped_ptr.14, %class.scoped_ptr.15, %class.svector.16, %class.mpq, i8, %class.mpq, %class.mpq, %class.mpq, i32, i32, i64, i32, i32, i32, i32, i32, %class.mpq, %class.mpq, %class.mpq, %"struct.subpaving::context_t<subpaving::config_mpq>::interval", %"struct.subpaving::context_t<subpaving::config_mpq>::interval", %"struct.subpaving::context_t<subpaving::config_mpq>::interval" }
%"struct.subpaving::config_mpq" = type { ptr }
%class.parray_manager = type { ptr, ptr, %class.ptr_vector, %class.ptr_vector }
%class.ptr_vector = type { %class.vector }
%class.vector = type { ptr }
%class.interval_manager = type { ptr, %"class.subpaving::context_t<subpaving::config_mpq>::interval_config", %class.mpq, %class.mpq, %class.mpq, %class.mpq, %class.mpq, %class.mpq, %class.mpq, %class.mpq, %class.mpq, i32, [4 x i8], %"struct.subpaving::context_t<subpaving::config_mpq>::interval", %"struct.subpaving::context_t<subpaving::config_mpq>::interval", %"struct.subpaving::context_t<subpaving::config_mpq>::interval", %"struct.subpaving::context_t<subpaving::config_mpq>::interval" }
%"class.subpaving::context_t<subpaving::config_mpq>::interval_config" = type { ptr }
%class.svector.1 = type { %class.vector.2 }
%class.vector.2 = type { ptr }
%class.ptr_vector.3 = type { %class.vector.4 }
%class.vector.4 = type { ptr }
%class.vector.5 = type { ptr }
%class.ptr_vector.6 = type { %class.vector.7 }
%class.vector.7 = type { ptr }
%class.ptr_vector.8 = type { %class.vector.9 }
%class.vector.9 = type { ptr }
%class.id_gen = type { i32, %class.svector.10 }
%class.svector.10 = type { %class.vector.11 }
%class.vector.11 = type { ptr }
%class.ptr_vector.12 = type { %class.vector.13 }
%class.vector.13 = type { ptr }
%"struct.subpaving::display_var_proc" = type { ptr }
%class.scoped_ptr = type { ptr }
%class.scoped_ptr.14 = type { ptr }
%class.scoped_ptr.15 = type { ptr }
%class.svector.16 = type { %class.vector.17 }
%class.vector.17 = type { ptr }
%class.mpq = type { %class.mpz, %class.mpz }
%class.mpz = type { i32, i8, ptr }
%"struct.subpaving::context_t<subpaving::config_mpq>::interval" = type <{ i8, [7 x i8], ptr, i32, [4 x i8], %class.mpq, i8, i8, [6 x i8], %class.mpq, i8, i8, [6 x i8] }>
%class._scoped_numeral = type { ptr, %class.mpq }
%class._scoped_numeral_vector = type { %class.svector, ptr }
%class.svector = type { %class.vector.0 }
%class.vector.0 = type { ptr }

; Function Attrs: mustprogress uwtable
define linkonce_odr hidden void @_ZN11mpz_managerILb0EE3delER3mpz(ptr noundef nonnull align 8 dereferenceable(600) %this, ptr noundef nonnull align 8 dereferenceable(16) %a) #4 comdat align 2 {
entry:
  %this.addr = alloca ptr, align 8
  %a.addr = alloca ptr, align 8
  store ptr %this, ptr %this.addr, align 8
  store ptr %a, ptr %a.addr, align 8
  %this1 = load ptr, ptr %this.addr, align 8
  %0 = load ptr, ptr %a.addr, align 8
  call void @_ZN11mpz_managerILb0EE3delEPS0_R3mpz(ptr noundef %this1, ptr noundef nonnull align 8 dereferenceable(16) %0)
  ret void
}

; Function Attrs: mustprogress uwtable
define linkonce_odr hidden void @_ZN11mpq_managerILb0EE3delER3mpz(ptr noundef nonnull align 8 dereferenceable(728) %this, ptr noundef nonnull align 8 dereferenceable(16) %a) #4 comdat align 2 {
entry:
  %this.addr = alloca ptr, align 8
  %a.addr = alloca ptr, align 8
  store ptr %this, ptr %this.addr, align 8
  store ptr %a, ptr %a.addr, align 8
  %this1 = load ptr, ptr %this.addr, align 8
  %0 = load ptr, ptr %a.addr, align 8
  call void @_ZN11mpz_managerILb0EE3delER3mpz(ptr noundef nonnull align 8 dereferenceable(600) %this1, ptr noundef nonnull align 8 dereferenceable(16) %0)
  ret void
}

; Function Attrs: mustprogress nounwind uwtable
define linkonce_odr hidden void @_ZN6vectorI3mpqLb0EjEC2Ev(ptr noundef nonnull align 8 dereferenceable(8) %this) unnamed_addr #5 comdat align 2 {
entry:
  %this.addr = alloca ptr, align 8
  store ptr %this, ptr %this.addr, align 8
  %this1 = load ptr, ptr %this.addr, align 8
  %m_data = getelementptr inbounds %class.vector.0, ptr %this1, i32 0, i32 0
  store ptr null, ptr %m_data, align 8
  ret void
}

; Function Attrs: mustprogress nounwind uwtable
define linkonce_odr hidden void @_ZN3mpzC2Ei(ptr noundef nonnull align 8 dereferenceable(16) %this, i32 noundef %v) unnamed_addr #5 comdat align 2 {
entry:
  %this.addr = alloca ptr, align 8
  %v.addr = alloca i32, align 4
  store ptr %this, ptr %this.addr, align 8
  store i32 %v, ptr %v.addr, align 4
  %this1 = load ptr, ptr %this.addr, align 8
  %m_val = getelementptr inbounds %class.mpz, ptr %this1, i32 0, i32 0
  %0 = load i32, ptr %v.addr, align 4
  store i32 %0, ptr %m_val, align 8
  %m_kind = getelementptr inbounds %class.mpz, ptr %this1, i32 0, i32 1
  %bf.load = load i8, ptr %m_kind, align 4
  %bf.clear = and i8 %bf.load, -2
  %bf.set = or i8 %bf.clear, 0
  store i8 %bf.set, ptr %m_kind, align 4
  %m_owner = getelementptr inbounds %class.mpz, ptr %this1, i32 0, i32 1
  %bf.load2 = load i8, ptr %m_owner, align 4
  %bf.clear3 = and i8 %bf.load2, -3
  %bf.set4 = or i8 %bf.clear3, 0
  store i8 %bf.set4, ptr %m_owner, align 4
  %m_ptr = getelementptr inbounds %class.mpz, ptr %this1, i32 0, i32 2
  store ptr null, ptr %m_ptr, align 8
  ret void
}

; Function Attrs: mustprogress nounwind uwtable
define linkonce_odr hidden void @_ZN3mpzC2Ev(ptr noundef nonnull align 8 dereferenceable(16) %this) unnamed_addr #5 comdat align 2 {
entry:
  %this.addr = alloca ptr, align 8
  store ptr %this, ptr %this.addr, align 8
  %this1 = load ptr, ptr %this.addr, align 8
  %m_val = getelementptr inbounds %class.mpz, ptr %this1, i32 0, i32 0
  store i32 0, ptr %m_val, align 8
  %m_kind = getelementptr inbounds %class.mpz, ptr %this1, i32 0, i32 1
  %bf.load = load i8, ptr %m_kind, align 4
  %bf.clear = and i8 %bf.load, -2
  %bf.set = or i8 %bf.clear, 0
  store i8 %bf.set, ptr %m_kind, align 4
  %m_owner = getelementptr inbounds %class.mpz, ptr %this1, i32 0, i32 1
  %bf.load2 = load i8, ptr %m_owner, align 4
  %bf.clear3 = and i8 %bf.load2, -3
  %bf.set4 = or i8 %bf.clear3, 0
  store i8 %bf.set4, ptr %m_owner, align 4
  %m_ptr = getelementptr inbounds %class.mpz, ptr %this1, i32 0, i32 2
  store ptr null, ptr %m_ptr, align 8
  ret void
}

; Function Attrs: noreturn nounwind uwtable
define linkonce_odr hidden void @__clang_call_terminate(ptr noundef %0) #8 comdat {
  %2 = call ptr @__cxa_begin_catch(ptr %0) #3
  call void @_ZSt9terminatev() #14
  unreachable
}

; Function Attrs: mustprogress uwtable
define linkonce_odr hidden void @_ZN11mpq_managerILb0EE3delER3mpq(ptr noundef nonnull align 8 dereferenceable(728) %this, ptr noundef nonnull align 8 dereferenceable(32) %a) #4 comdat align 2 {
entry:
  %this.addr = alloca ptr, align 8
  %a.addr = alloca ptr, align 8
  store ptr %this, ptr %this.addr, align 8
  store ptr %a, ptr %a.addr, align 8
  %this1 = load ptr, ptr %this.addr, align 8
  %0 = load ptr, ptr %a.addr, align 8
  %m_num = getelementptr inbounds %class.mpq, ptr %0, i32 0, i32 0
  call void @_ZN11mpq_managerILb0EE3delER3mpz(ptr noundef nonnull align 8 dereferenceable(728) %this1, ptr noundef nonnull align 8 dereferenceable(16) %m_num)
  %1 = load ptr, ptr %a.addr, align 8
  %m_den = getelementptr inbounds %class.mpq, ptr %1, i32 0, i32 1
  call void @_ZN11mpq_managerILb0EE3delER3mpz(ptr noundef nonnull align 8 dereferenceable(728) %this1, ptr noundef nonnull align 8 dereferenceable(16) %m_den)
  ret void
}

; Function Attrs: mustprogress nounwind uwtable
define linkonce_odr hidden void @_ZN7svectorI3mpqjEC2Ev(ptr noundef nonnull align 8 dereferenceable(8) %this) unnamed_addr #5 comdat align 2 {
entry:
  %this.addr = alloca ptr, align 8
  store ptr %this, ptr %this.addr, align 8
  %this1 = load ptr, ptr %this.addr, align 8
  %0 = getelementptr inbounds i8, ptr %this1, i64 0
  call void @llvm.memset.p0.i64(ptr align 8 %0, i8 0, i64 8, i1 false)
  call void @_ZN6vectorI3mpqLb0EjEC2Ev(ptr noundef nonnull align 8 dereferenceable(8) %this1) #3
  ret void
}

; Function Attrs: mustprogress uwtable
define linkonce_odr hidden void @_ZN3mpqC2Ev(ptr noundef nonnull align 8 dereferenceable(32) %this) unnamed_addr #4 comdat align 2 {
entry:
  %this.addr = alloca ptr, align 8
  store ptr %this, ptr %this.addr, align 8
  %this1 = load ptr, ptr %this.addr, align 8
  %m_num = getelementptr inbounds %class.mpq, ptr %this1, i32 0, i32 0
  call void @_ZN3mpzC2Ev(ptr noundef nonnull align 8 dereferenceable(16) %m_num)
  %m_den = getelementptr inbounds %class.mpq, ptr %this1, i32 0, i32 1
  call void @_ZN3mpzC2Ei(ptr noundef nonnull align 8 dereferenceable(16) %m_den, i32 noundef 1)
  ret void
}

; Function Attrs: mustprogress nounwind uwtable
define linkonce_odr hidden void @_ZN9subpaving7contextD2Ev(ptr noundef nonnull align 8 dereferenceable(8) %this) unnamed_addr #5 comdat align 2 {
entry:
  %this.addr = alloca ptr, align 8
  store ptr %this, ptr %this.addr, align 8
  ret void
}

; Function Attrs: mustprogress nounwind uwtable
define linkonce_odr hidden void @_ZN9subpaving10config_mpqC2ER11mpq_managerILb0EE(ptr noundef nonnull align 8 dereferenceable(8) %this, ptr noundef nonnull align 8 dereferenceable(728) %m) unnamed_addr #5 comdat align 2 {
entry:
  %this.addr = alloca ptr, align 8
  %m.addr = alloca ptr, align 8
  store ptr %this, ptr %this.addr, align 8
  store ptr %m, ptr %m.addr, align 8
  %this1 = load ptr, ptr %this.addr, align 8
  %m_manager = getelementptr inbounds %"struct.subpaving::config_mpq", ptr %this1, i32 0, i32 0
  %0 = load ptr, ptr %m.addr, align 8
  store ptr %0, ptr %m_manager, align 8
  ret void
}

; Function Attrs: mustprogress nounwind uwtable
define linkonce_odr hidden void @_ZN9subpaving7contextC2Ev(ptr noundef nonnull align 8 dereferenceable(8) %this) unnamed_addr #5 comdat align 2 {
entry:
  %this.addr = alloca ptr, align 8
  store ptr %this, ptr %this.addr, align 8
  %this1 = load ptr, ptr %this.addr, align 8
  store ptr getelementptr inbounds ({ [22 x ptr] }, ptr @_ZTVN9subpaving7contextE, i32 0, i32 0, i32 2), ptr %this1, align 8
  ret void
}

; Function Attrs: mustprogress nounwind uwtable
define linkonce_odr hidden void @_ZN9subpaving15context_wrapperINS_9context_tINS_10config_mpqEEEED2Ev(ptr noundef nonnull align 8 dereferenceable(1568) %this) unnamed_addr #5 comdat align 2 {
entry:
  %this.addr = alloca ptr, align 8
  store ptr %this, ptr %this.addr, align 8
  %this1 = load ptr, ptr %this.addr, align 8
  store ptr getelementptr inbounds ({ [22 x ptr] }, ptr @_ZTVN9subpaving15context_wrapperINS_9context_tINS_10config_mpqEEEEE, i32 0, i32 0, i32 2), ptr %this1, align 8
  %m_ctx = getelementptr inbounds %"class.subpaving::context_wrapper", ptr %this1, i32 0, i32 1
  call void @_ZN9subpaving9context_tINS_10config_mpqEED1Ev(ptr noundef nonnull align 8 dereferenceable(1560) %m_ctx) #3
  call void @_ZN9subpaving7contextD2Ev(ptr noundef nonnull align 8 dereferenceable(8) %this1) #3
  ret void
}

; Function Attrs: mustprogress nounwind uwtable
define linkonce_odr hidden void @_ZN15_scoped_numeralI11mpq_managerILb0EEED2Ev(ptr noundef nonnull align 8 dereferenceable(40) %this) unnamed_addr #5 comdat align 2 personality ptr @__gxx_personality_v0 {
entry:
  %this.addr = alloca ptr, align 8
  store ptr %this, ptr %this.addr, align 8
  %this1 = load ptr, ptr %this.addr, align 8
  %m_manager = getelementptr inbounds %class._scoped_numeral, ptr %this1, i32 0, i32 0
  %0 = load ptr, ptr %m_manager, align 8
  %m_num = getelementptr inbounds %class._scoped_numeral, ptr %this1, i32 0, i32 1
  invoke void @_ZN11mpq_managerILb0EE3delER3mpq(ptr noundef nonnull align 8 dereferenceable(728) %0, ptr noundef nonnull align 8 dereferenceable(32) %m_num)
          to label %invoke.cont unwind label %terminate.lpad

invoke.cont:                                      ; preds = %entry
  ret void

terminate.lpad:                                   ; preds = %entry
  %1 = landingpad { ptr, i32 }
          catch ptr null
  %2 = extractvalue { ptr, i32 } %1, 0
  call void @__clang_call_terminate(ptr %2) #14
  unreachable
}

; Function Attrs: mustprogress uwtable
define linkonce_odr hidden void @_ZN22_scoped_numeral_vectorI11mpq_managerILb0EEEC2ERS1_(ptr noundef nonnull align 8 dereferenceable(16) %this, ptr noundef nonnull align 8 dereferenceable(728) %m) unnamed_addr #4 comdat align 2 {
entry:
  %this.addr = alloca ptr, align 8
  %m.addr = alloca ptr, align 8
  store ptr %this, ptr %this.addr, align 8
  store ptr %m, ptr %m.addr, align 8
  %this1 = load ptr, ptr %this.addr, align 8
  call void @_ZN7svectorI3mpqjEC2Ev(ptr noundef nonnull align 8 dereferenceable(8) %this1)
  %m_manager = getelementptr inbounds %class._scoped_numeral_vector, ptr %this1, i32 0, i32 1
  %0 = load ptr, ptr %m.addr, align 8
  store ptr %0, ptr %m_manager, align 8
  ret void
}

; Function Attrs: mustprogress uwtable
define linkonce_odr hidden void @_ZN15_scoped_numeralI11mpq_managerILb0EEEC2ERS1_(ptr noundef nonnull align 8 dereferenceable(40) %this, ptr noundef nonnull align 8 dereferenceable(728) %m) unnamed_addr #4 comdat align 2 {
entry:
  %this.addr = alloca ptr, align 8
  %m.addr = alloca ptr, align 8
  store ptr %this, ptr %this.addr, align 8
  store ptr %m, ptr %m.addr, align 8
  %this1 = load ptr, ptr %this.addr, align 8
  %m_manager = getelementptr inbounds %class._scoped_numeral, ptr %this1, i32 0, i32 0
  %0 = load ptr, ptr %m.addr, align 8
  store ptr %0, ptr %m_manager, align 8
  %m_num = getelementptr inbounds %class._scoped_numeral, ptr %this1, i32 0, i32 1
  call void @_ZN3mpqC2Ev(ptr noundef nonnull align 8 dereferenceable(32) %m_num)
  ret void
}

; Function Attrs: mustprogress uwtable
define linkonce_odr hidden void @_ZN9subpaving15context_wrapperINS_9context_tINS_10config_mpqEEEEC2ER8reslimitR11mpq_managerILb0EERK10params_refP22small_object_allocator(ptr noundef nonnull align 8 dereferenceable(1568) %this, ptr noundef nonnull align 8 dereferenceable(40) %lim, ptr noundef nonnull align 8 dereferenceable(728) %m, ptr noundef nonnull align 8 dereferenceable(8) %p, ptr noundef %a) unnamed_addr #4 comdat align 2 personality ptr @__gxx_personality_v0 {
entry:
  %this.addr = alloca ptr, align 8
  %lim.addr = alloca ptr, align 8
  %m.addr = alloca ptr, align 8
  %p.addr = alloca ptr, align 8
  %a.addr = alloca ptr, align 8
  %ref.tmp = alloca %"struct.subpaving::config_mpq", align 8
  %exn.slot = alloca ptr, align 8
  %ehselector.slot = alloca i32, align 4
  store ptr %this, ptr %this.addr, align 8
  store ptr %lim, ptr %lim.addr, align 8
  store ptr %m, ptr %m.addr, align 8
  store ptr %p, ptr %p.addr, align 8
  store ptr %a, ptr %a.addr, align 8
  %this1 = load ptr, ptr %this.addr, align 8
  call void @_ZN9subpaving7contextC2Ev(ptr noundef nonnull align 8 dereferenceable(8) %this1) #3
  store ptr getelementptr inbounds ({ [22 x ptr] }, ptr @_ZTVN9subpaving15context_wrapperINS_9context_tINS_10config_mpqEEEEE, i32 0, i32 0, i32 2), ptr %this1, align 8
  %m_ctx = getelementptr inbounds %"class.subpaving::context_wrapper", ptr %this1, i32 0, i32 1
  %0 = load ptr, ptr %lim.addr, align 8
  %1 = load ptr, ptr %m.addr, align 8
  invoke void @_ZN9subpaving10config_mpqC2ER11mpq_managerILb0EE(ptr noundef nonnull align 8 dereferenceable(8) %ref.tmp, ptr noundef nonnull align 8 dereferenceable(728) %1)
          to label %invoke.cont unwind label %lpad

invoke.cont:                                      ; preds = %entry
  %2 = load ptr, ptr %p.addr, align 8
  %3 = load ptr, ptr %a.addr, align 8
  invoke void @_ZN9subpaving9context_tINS_10config_mpqEEC1ER8reslimitRKS1_RK10params_refP22small_object_allocator(ptr noundef nonnull align 8 dereferenceable(1560) %m_ctx, ptr noundef nonnull align 8 dereferenceable(40) %0, ptr noundef nonnull align 8 dereferenceable(8) %ref.tmp, ptr noundef nonnull align 8 dereferenceable(8) %2, ptr noundef %3)
          to label %invoke.cont2 unwind label %lpad

invoke.cont2:                                     ; preds = %invoke.cont
  ret void

lpad:                                             ; preds = %invoke.cont, %entry
  %4 = landingpad { ptr, i32 }
          cleanup
  %5 = extractvalue { ptr, i32 } %4, 0
  store ptr %5, ptr %exn.slot, align 8
  %6 = extractvalue { ptr, i32 } %4, 1
  store i32 %6, ptr %ehselector.slot, align 4
  call void @_ZN9subpaving7contextD2Ev(ptr noundef nonnull align 8 dereferenceable(8) %this1) #3
  br label %eh.resume

eh.resume:                                        ; preds = %lpad
  %exn = load ptr, ptr %exn.slot, align 8
  %sel = load i32, ptr %ehselector.slot, align 4
  %lpad.val = insertvalue { ptr, i32 } poison, ptr %exn, 0
  %lpad.val3 = insertvalue { ptr, i32 } %lpad.val, i32 %sel, 1
  resume { ptr, i32 } %lpad.val3
}

; Function Attrs: mustprogress uwtable
define linkonce_odr hidden void @_ZN9subpaving19context_mpq_wrapperC2ER8reslimitR11mpq_managerILb0EERK10params_refP22small_object_allocator(ptr noundef nonnull align 8 dereferenceable(1624) %this, ptr noundef nonnull align 8 dereferenceable(40) %lim, ptr noundef nonnull align 8 dereferenceable(728) %m, ptr noundef nonnull align 8 dereferenceable(8) %p, ptr noundef %a) unnamed_addr #4 comdat align 2 personality ptr @__gxx_personality_v0 {
entry:
  %this.addr = alloca ptr, align 8
  %lim.addr = alloca ptr, align 8
  %m.addr = alloca ptr, align 8
  %p.addr = alloca ptr, align 8
  %a.addr = alloca ptr, align 8
  %exn.slot = alloca ptr, align 8
  %ehselector.slot = alloca i32, align 4
  store ptr %this, ptr %this.addr, align 8
  store ptr %lim, ptr %lim.addr, align 8
  store ptr %m, ptr %m.addr, align 8
  store ptr %p, ptr %p.addr, align 8
  store ptr %a, ptr %a.addr, align 8
  %this1 = load ptr, ptr %this.addr, align 8
  %0 = load ptr, ptr %lim.addr, align 8
  %1 = load ptr, ptr %m.addr, align 8
  %2 = load ptr, ptr %p.addr, align 8
  %3 = load ptr, ptr %a.addr, align 8
  call void @_ZN9subpaving15context_wrapperINS_9context_tINS_10config_mpqEEEEC2ER8reslimitR11mpq_managerILb0EERK10params_refP22small_object_allocator(ptr noundef nonnull align 8 dereferenceable(1568) %this1, ptr noundef nonnull align 8 dereferenceable(40) %0, ptr noundef nonnull align 8 dereferenceable(728) %1, ptr noundef nonnull align 8 dereferenceable(8) %2, ptr noundef %3)
  store ptr getelementptr inbounds ({ [22 x ptr] }, ptr @_ZTVN9subpaving19context_mpq_wrapperE, i32 0, i32 0, i32 2), ptr %this1, align 8
  %m_c = getelementptr inbounds %"class.subpaving::context_mpq_wrapper", ptr %this1, i32 0, i32 1
  %4 = load ptr, ptr %m.addr, align 8
  invoke void @_ZN15_scoped_numeralI11mpq_managerILb0EEEC2ERS1_(ptr noundef nonnull align 8 dereferenceable(40) %m_c, ptr noundef nonnull align 8 dereferenceable(728) %4)
          to label %invoke.cont unwind label %lpad

invoke.cont:                                      ; preds = %entry
  %m_as = getelementptr inbounds %"class.subpaving::context_mpq_wrapper", ptr %this1, i32 0, i32 2
  %5 = load ptr, ptr %m.addr, align 8
  invoke void @_ZN22_scoped_numeral_vectorI11mpq_managerILb0EEEC2ERS1_(ptr noundef nonnull align 8 dereferenceable(16) %m_as, ptr noundef nonnull align 8 dereferenceable(728) %5)
          to label %invoke.cont3 unwind label %lpad2

invoke.cont3:                                     ; preds = %invoke.cont
  ret void

lpad:                                             ; preds = %entry
  %6 = landingpad { ptr, i32 }
          cleanup
  %7 = extractvalue { ptr, i32 } %6, 0
  store ptr %7, ptr %exn.slot, align 8
  %8 = extractvalue { ptr, i32 } %6, 1
  store i32 %8, ptr %ehselector.slot, align 4
  br label %ehcleanup

lpad2:                                            ; preds = %invoke.cont
  %9 = landingpad { ptr, i32 }
          cleanup
  %10 = extractvalue { ptr, i32 } %9, 0
  store ptr %10, ptr %exn.slot, align 8
  %11 = extractvalue { ptr, i32 } %9, 1
  store i32 %11, ptr %ehselector.slot, align 4
  call void @_ZN15_scoped_numeralI11mpq_managerILb0EEED2Ev(ptr noundef nonnull align 8 dereferenceable(40) %m_c) #3
  br label %ehcleanup

ehcleanup:                                        ; preds = %lpad2, %lpad
  call void @_ZN9subpaving15context_wrapperINS_9context_tINS_10config_mpqEEEED2Ev(ptr noundef nonnull align 8 dereferenceable(1568) %this1) #3
  br label %eh.resume

eh.resume:                                        ; preds = %ehcleanup
  %exn = load ptr, ptr %exn.slot, align 8
  %sel = load i32, ptr %ehselector.slot, align 4
  %lpad.val = insertvalue { ptr, i32 } poison, ptr %exn, 0
  %lpad.val4 = insertvalue { ptr, i32 } %lpad.val, i32 %sel, 1
  resume { ptr, i32 } %lpad.val4
}

; Function Attrs: mustprogress uwtable
define hidden noundef ptr @_ZN9subpaving14mk_mpq_contextER8reslimitR11mpq_managerILb0EERK10params_refP22small_object_allocator(ptr noundef nonnull align 8 dereferenceable(40) %lim, ptr noundef nonnull align 8 dereferenceable(728) %m, ptr noundef nonnull align 8 dereferenceable(8) %p, ptr noundef %a) #4 {
entry:
  %lim.addr = alloca ptr, align 8
  %m.addr = alloca ptr, align 8
  %p.addr = alloca ptr, align 8
  %a.addr = alloca ptr, align 8
  store ptr %lim, ptr %lim.addr, align 8
  store ptr %m, ptr %m.addr, align 8
  store ptr %p, ptr %p.addr, align 8
  store ptr %a, ptr %a.addr, align 8
  %call = call noalias noundef ptr @_ZN6memory8allocateEm(i64 noundef 1624)
  %0 = load ptr, ptr %lim.addr, align 8
  %1 = load ptr, ptr %m.addr, align 8
  %2 = load ptr, ptr %p.addr, align 8
  %3 = load ptr, ptr %a.addr, align 8
  call void @_ZN9subpaving19context_mpq_wrapperC2ER8reslimitR11mpq_managerILb0EERK10params_refP22small_object_allocator(ptr noundef nonnull align 8 dereferenceable(1624) %call, ptr noundef nonnull align 8 dereferenceable(40) %0, ptr noundef nonnull align 8 dereferenceable(728) %1, ptr noundef nonnull align 8 dereferenceable(8) %2, ptr noundef %3)
  ret ptr %call
}