; Function Attrs: mustprogress uwtable
define hidden noundef ptr @_ZN9subpaving14mk_mpq_contextER8reslimitR11mpq_managerILb0EERK10params_refP22small_object_allocator(ptr noundef nonnull align 8 dereferenceable(40) %lim, ptr noundef nonnull align 8 dereferenceable(728) %m, ptr noundef nonnull align 8 dereferenceable(8) %p, ptr noundef %a) local_unnamed_addr #3 personality ptr @__gxx_personality_v0 {
entry:
  %ref.tmp.i.i = alloca %"struct.subpaving::config_mpq", align 8
  %call = tail call noalias noundef ptr @_ZN6memory8allocateEm(i64 noundef 1624)
  call void @llvm.lifetime.start.p0(i64 8, ptr nonnull %ref.tmp.i.i)
  store ptr getelementptr inbounds ({ [22 x ptr] }, ptr @_ZTVN9subpaving15context_wrapperINS_9context_tINS_10config_mpqEEEEE, i64 0, i32 0, i64 2), ptr %call, align 8
  %m_ctx.i.i = getelementptr inbounds i8, ptr %call, i64 8
  store ptr %m, ptr %ref.tmp.i.i, align 8
  call void @_ZN9subpaving9context_tINS_10config_mpqEEC1ER8reslimitRKS1_RK10params_refP22small_object_allocator(ptr noundef nonnull align 8 dereferenceable(1560) %m_ctx.i.i, ptr noundef nonnull align 8 dereferenceable(40) %lim, ptr noundef nonnull align 8 dereferenceable(8) %ref.tmp.i.i, ptr noundef nonnull align 8 dereferenceable(8) %p, ptr noundef %a)
  call void @llvm.lifetime.end.p0(i64 8, ptr nonnull %ref.tmp.i.i)
  store ptr getelementptr inbounds ({ [22 x ptr] }, ptr @_ZTVN9subpaving19context_mpq_wrapperE, i64 0, i32 0, i64 2), ptr %call, align 8
  %m_c.i = getelementptr inbounds i8, ptr %call, i64 1568
  store ptr %m, ptr %m_c.i, align 8
  %m_num.i.i = getelementptr inbounds i8, ptr %call, i64 1576
  store i32 0, ptr %m_num.i.i, align 8
  %m_kind.i.i.i.i = getelementptr inbounds i8, ptr %call, i64 1580
  %bf.load.i.i.i.i = load i8, ptr %m_kind.i.i.i.i, align 4
  %bf.clear3.i.i.i.i = and i8 %bf.load.i.i.i.i, -4
  store i8 %bf.clear3.i.i.i.i, ptr %m_kind.i.i.i.i, align 4
  %m_ptr.i.i.i.i = getelementptr inbounds i8, ptr %call, i64 1584
  store ptr null, ptr %m_ptr.i.i.i.i, align 8
  %m_den.i.i.i = getelementptr inbounds i8, ptr %call, i64 1592
  store i32 1, ptr %m_den.i.i.i, align 8
  %m_kind.i1.i.i.i = getelementptr inbounds i8, ptr %call, i64 1596
  %bf.load.i2.i.i.i = load i8, ptr %m_kind.i1.i.i.i, align 4
  %bf.clear3.i3.i.i.i = and i8 %bf.load.i2.i.i.i, -4
  store i8 %bf.clear3.i3.i.i.i, ptr %m_kind.i1.i.i.i, align 4
  %m_ptr.i4.i.i.i = getelementptr inbounds i8, ptr %call, i64 1600
  %m_manager.i.i = getelementptr inbounds i8, ptr %call, i64 1616
  call void @llvm.memset.p0.i64(ptr noundef nonnull align 8 dereferenceable(16) %m_ptr.i4.i.i.i, i8 0, i64 16, i1 false)
  store ptr %m, ptr %m_manager.i.i, align 8
  ret ptr %call
}